Certificate:
    Data:
        Version: 3 (0x2)
        Serial Number:
            1d:e2:95:c7:47:aa:39:ca:7f:71:e1:3f:b3:19:1a:ed
        Signature Algorithm: ecdsa-with-SHA512
        Issuer: CN=fastiz
        Validity
            Not Before: Jun  6 22:17:28 2021 GMT
            Not After : May 21 22:17:28 2024 GMT
        Subject: CN=client2
        Subject Public Key Info:
            Public Key Algorithm: id-ecPublicKey
                Public-Key: (384 bit)
                pub:
                    04:e0:cb:65:e9:d5:d9:ca:46:0e:f9:bd:d2:30:54:
                    60:54:89:47:84:f1:12:ad:0e:ed:06:8c:0d:54:5c:
                    3d:5b:6a:f2:8c:ef:95:62:c4:11:5d:49:7d:5a:ff:
                    ef:ee:8c:00:79:e0:e0:1a:52:9a:e0:98:10:af:42:
                    6d:47:0f:f5:27:19:ac:ce:35:cd:66:f9:bc:d7:1d:
                    22:46:3b:e8:db:ff:c6:cc:09:ed:eb:eb:3d:4b:9d:
                    e7:da:f7:b6:f7:48:35
                ASN1 OID: secp384r1
                NIST CURVE: P-384
        X509v3 extensions:
            X509v3 Basic Constraints: 
                CA:FALSE
            X509v3 Subject Key Identifier: 
                51:7D:A2:AC:7A:15:24:D1:7F:34:06:31:CF:C1:5D:A8:43:B0:9D:3A
            X509v3 Authority Key Identifier: 
                keyid:98:60:22:72:A3:63:0C:D1:35:7C:3F:B5:13:3C:56:8A:3D:33:30:B1
                DirName:/CN=fastiz
                serial:44:23:AC:84:9E:12:BE:00:12:FC:2C:03:32:8C:CF:71:92:91:8B:57

            X509v3 Extended Key Usage: 
                TLS Web Client Authentication
            X509v3 Key Usage: 
                Digital Signature
    Signature Algorithm: ecdsa-with-SHA512
         30:65:02:31:00:eb:30:c0:04:d1:88:b7:a9:41:70:88:90:98:
         f6:28:4e:5d:ea:a9:e8:39:5e:1f:ac:21:82:cb:78:46:c7:58:
         53:2c:b1:36:54:21:6e:eb:a8:1c:b0:98:83:ab:b0:13:ed:02:
         30:2c:86:05:c1:70:b8:96:b4:4d:9e:73:cb:ac:53:8e:e6:2b:
         b0:43:2c:31:b2:a7:eb:2f:a0:75:a9:71:07:d9:c5:b1:db:2b:
         e1:01:ee:db:3b:30:3f:3f:f1:d0:b1:2d:17
-----BEGIN CERTIFICATE-----
MIIB/DCCAYKgAwIBAgIQHeKVx0eqOcp/ceE/sxka7TAKBggqhkjOPQQDBDARMQ8w
DQYDVQQDDAZmYXN0aXowHhcNMjEwNjA2MjIxNzI4WhcNMjQwNTIxMjIxNzI4WjAS
MRAwDgYDVQQDDAdjbGllbnQyMHYwEAYHKoZIzj0CAQYFK4EEACIDYgAE4Mtl6dXZ
ykYO+b3SMFRgVIlHhPESrQ7tBowNVFw9W2ryjO+VYsQRXUl9Wv/v7owAeeDgGlKa
4JgQr0JtRw/1JxmszjXNZvm81x0iRjvo2//GzAnt6+s9S53n2ve290g1o4GdMIGa
MAkGA1UdEwQCMAAwHQYDVR0OBBYEFFF9oqx6FSTRfzQGMc/BXahDsJ06MEwGA1Ud
IwRFMEOAFJhgInKjYwzRNXw/tRM8Voo9MzCxoRWkEzARMQ8wDQYDVQQDDAZmYXN0
aXqCFEQjrISeEr4AEvwsAzKMz3GSkYtXMBMGA1UdJQQMMAoGCCsGAQUFBwMCMAsG
A1UdDwQEAwIHgDAKBggqhkjOPQQDBANoADBlAjEA6zDABNGIt6lBcIiQmPYoTl3q
qeg5Xh+sIYLLeEbHWFMssTZUIW7rqBywmIOrsBPtAjAshgXBcLiWtE2ec8usU47m
K7BDLDGyp+svoHWpcQfZxbHbK+EB7ts7MD8/8dCxLRc=
-----END CERTIFICATE-----
