Certificate:
    Data:
        Version: 3 (0x2)
        Serial Number:
            74:8a:c6:c7:6c:db:35:0c:5d:45:e2:65:43:24:71:ac
        Signature Algorithm: ecdsa-with-SHA512
        Issuer: CN=fastiz
        Validity
            Not Before: Jun  6 22:17:05 2021 GMT
            Not After : May 21 22:17:05 2024 GMT
        Subject: CN=client1
        Subject Public Key Info:
            Public Key Algorithm: id-ecPublicKey
                Public-Key: (384 bit)
                pub:
                    04:37:42:3c:e0:40:4b:5c:2e:e0:6d:dd:9c:84:6c:
                    08:05:39:5a:33:a3:b5:84:56:5f:97:27:e4:3b:96:
                    4d:8c:8a:bd:6d:3c:bc:91:19:40:83:46:70:dd:26:
                    a4:c2:cf:d0:02:f5:00:16:21:12:cb:e0:32:00:a8:
                    d8:bd:73:ce:bb:9e:97:8b:31:1a:a4:a2:69:c2:04:
                    2e:f0:22:2a:05:23:b1:bc:86:88:9a:73:27:2b:43:
                    db:99:37:74:8d:ef:c6
                ASN1 OID: secp384r1
                NIST CURVE: P-384
        X509v3 extensions:
            X509v3 Basic Constraints: 
                CA:FALSE
            X509v3 Subject Key Identifier: 
                27:E9:95:2A:60:6E:32:34:C4:1B:60:DE:A4:6B:F0:5E:DE:FA:39:DE
            X509v3 Authority Key Identifier: 
                keyid:98:60:22:72:A3:63:0C:D1:35:7C:3F:B5:13:3C:56:8A:3D:33:30:B1
                DirName:/CN=fastiz
                serial:44:23:AC:84:9E:12:BE:00:12:FC:2C:03:32:8C:CF:71:92:91:8B:57

            X509v3 Extended Key Usage: 
                TLS Web Client Authentication
            X509v3 Key Usage: 
                Digital Signature
    Signature Algorithm: ecdsa-with-SHA512
         30:66:02:31:00:94:f8:01:4c:18:f5:c1:7a:1b:b1:6d:6c:a8:
         99:ef:2e:03:c6:50:38:51:e5:ae:47:7e:65:72:ad:c7:89:78:
         63:fe:c8:b4:4e:92:b6:2a:e9:3e:70:50:82:8c:2c:a1:fd:02:
         31:00:e0:6b:66:61:21:df:d2:d6:cd:49:25:3e:69:31:17:88:
         35:df:84:8b:5c:dc:41:db:92:c7:27:85:b8:e4:e7:f5:27:50:
         1e:e6:57:ea:b0:37:46:4f:1f:9c:25:ad:cb:27
-----BEGIN CERTIFICATE-----
MIIB/TCCAYKgAwIBAgIQdIrGx2zbNQxdReJlQyRxrDAKBggqhkjOPQQDBDARMQ8w
DQYDVQQDDAZmYXN0aXowHhcNMjEwNjA2MjIxNzA1WhcNMjQwNTIxMjIxNzA1WjAS
MRAwDgYDVQQDDAdjbGllbnQxMHYwEAYHKoZIzj0CAQYFK4EEACIDYgAEN0I84EBL
XC7gbd2chGwIBTlaM6O1hFZflyfkO5ZNjIq9bTy8kRlAg0Zw3Sakws/QAvUAFiES
y+AyAKjYvXPOu56XizEapKJpwgQu8CIqBSOxvIaImnMnK0PbmTd0je/Go4GdMIGa
MAkGA1UdEwQCMAAwHQYDVR0OBBYEFCfplSpgbjI0xBtg3qRr8F7e+jneMEwGA1Ud
IwRFMEOAFJhgInKjYwzRNXw/tRM8Voo9MzCxoRWkEzARMQ8wDQYDVQQDDAZmYXN0
aXqCFEQjrISeEr4AEvwsAzKMz3GSkYtXMBMGA1UdJQQMMAoGCCsGAQUFBwMCMAsG
A1UdDwQEAwIHgDAKBggqhkjOPQQDBANpADBmAjEAlPgBTBj1wXobsW1sqJnvLgPG
UDhR5a5HfmVyrceJeGP+yLROkrYq6T5wUIKMLKH9AjEA4GtmYSHf0tbNSSU+aTEX
iDXfhItc3EHbkscnhbjk5/UnUB7mV+qwN0ZPH5wlrcsn
-----END CERTIFICATE-----
