Certificate:
    Data:
        Version: 3 (0x2)
        Serial Number:
            cb:97:c4:46:a6:ed:88:55:79:e1:7b:15:48:58:45:38
        Signature Algorithm: ecdsa-with-SHA512
        Issuer: CN=fastiz
        Validity
            Not Before: Jun  6 22:16:15 2021 GMT
            Not After : May 21 22:16:15 2024 GMT
        Subject: CN=server
        Subject Public Key Info:
            Public Key Algorithm: id-ecPublicKey
                Public-Key: (384 bit)
                pub:
                    04:30:90:00:3a:e5:61:74:7d:39:ff:85:e4:90:37:
                    8a:70:fa:0a:ad:91:8d:9e:57:c6:47:aa:71:f9:a5:
                    1e:0b:25:64:2d:85:3b:66:48:6c:12:e6:29:e7:82:
                    02:f3:0e:c4:52:45:ca:66:bc:36:aa:70:cf:c5:63:
                    00:e7:f6:82:93:4d:6b:00:37:3c:1e:1d:8b:32:f3:
                    a0:ea:d0:1d:ea:57:5a:88:98:f5:af:78:83:70:f9:
                    c8:28:76:57:bf:f9:31
                ASN1 OID: secp384r1
                NIST CURVE: P-384
        X509v3 extensions:
            X509v3 Basic Constraints: 
                CA:FALSE
            X509v3 Subject Key Identifier: 
                47:33:2F:B6:A8:C7:24:10:3A:43:F3:E0:B5:EB:91:00:19:E3:69:B6
            X509v3 Authority Key Identifier: 
                keyid:98:60:22:72:A3:63:0C:D1:35:7C:3F:B5:13:3C:56:8A:3D:33:30:B1
                DirName:/CN=fastiz
                serial:44:23:AC:84:9E:12:BE:00:12:FC:2C:03:32:8C:CF:71:92:91:8B:57

            X509v3 Extended Key Usage: 
                TLS Web Server Authentication
            X509v3 Key Usage: 
                Digital Signature, Key Encipherment
            X509v3 Subject Alternative Name: 
                DNS:server
    Signature Algorithm: ecdsa-with-SHA512
         30:66:02:31:00:8a:50:a3:f9:d4:f6:17:69:b3:06:46:7b:23:
         db:06:75:a9:96:d2:02:35:73:b1:8b:6b:d5:e3:88:81:5a:ae:
         41:87:9d:d3:26:73:e0:33:05:56:2b:28:e4:5e:4c:b8:f8:02:
         31:00:c7:4d:81:21:49:41:ca:3e:54:ae:96:ce:aa:66:b9:6a:
         4e:2c:1e:fd:fa:5e:25:c9:18:f0:b1:9b:42:8d:63:51:c2:ea:
         65:c2:53:e7:a5:c9:6b:86:7a:12:45:c4:72:33
-----BEGIN CERTIFICATE-----
MIICEDCCAZWgAwIBAgIRAMuXxEam7YhVeeF7FUhYRTgwCgYIKoZIzj0EAwQwETEP
MA0GA1UEAwwGZmFzdGl6MB4XDTIxMDYwNjIyMTYxNVoXDTI0MDUyMTIyMTYxNVow
ETEPMA0GA1UEAwwGc2VydmVyMHYwEAYHKoZIzj0CAQYFK4EEACIDYgAEMJAAOuVh
dH05/4XkkDeKcPoKrZGNnlfGR6px+aUeCyVkLYU7ZkhsEuYp54IC8w7EUkXKZrw2
qnDPxWMA5/aCk01rADc8Hh2LMvOg6tAd6ldaiJj1r3iDcPnIKHZXv/kxo4GwMIGt
MAkGA1UdEwQCMAAwHQYDVR0OBBYEFEczL7aoxyQQOkPz4LXrkQAZ42m2MEwGA1Ud
IwRFMEOAFJhgInKjYwzRNXw/tRM8Voo9MzCxoRWkEzARMQ8wDQYDVQQDDAZmYXN0
aXqCFEQjrISeEr4AEvwsAzKMz3GSkYtXMBMGA1UdJQQMMAoGCCsGAQUFBwMBMAsG
A1UdDwQEAwIFoDARBgNVHREECjAIggZzZXJ2ZXIwCgYIKoZIzj0EAwQDaQAwZgIx
AIpQo/nU9hdpswZGeyPbBnWpltICNXOxi2vV44iBWq5Bh53TJnPgMwVWKyjkXky4
+AIxAMdNgSFJQco+VK6WzqpmuWpOLB79+l4lyRjwsZtCjWNRwuplwlPnpclrhnoS
RcRyMw==
-----END CERTIFICATE-----
